target datalayout = "e-m:e-p270:32:32-p271:32:32-p272:64:64-i64:64-i128:128-f80:128-n8:16:32:64-S128"
target triple = "x86_64-pc-linux-gnu"

%struct.rdp_field_info_t = type { ptr, i32, ptr, i32, i32, ptr }

@hf_rdp_capabilitySetType = internal global i32 0, align 4
@hf_rdp_capabilitySet = internal global i32 0, align 4
@hf_rdp_lengthCapability = internal global i32 0, align 4
@hf_rdp_capabilityData = internal global i32 0, align 4
@hf_rdp_capaRail_supportedLevel = internal global i32 0, align 4
@ett_rdp_capabilitySet = internal global i32 0, align 4
@ett_rdp_capa_rail = internal global i32 0, align 4
@.str.1046 = private unnamed_addr constant [3 x i8] c"%s\00", align 1
@.str.1047 = private unnamed_addr constant [21 x i8] c"<unknown capability>\00", align 1

; Function Attrs: null_pointer_is_valid sspstrong uwtable
define internal i32 @dissect_rdp_capabilitySets(ptr noundef %0, i32 noundef %1, ptr noundef %2, ptr noundef %3, i32 noundef %4) #0 {
  %6 = alloca ptr, align 8
  %7 = alloca i32, align 4
  %8 = alloca ptr, align 8
  %9 = alloca ptr, align 8
  %10 = alloca i32, align 4
  %11 = alloca i32, align 4
  %12 = alloca i32, align 4
  %13 = alloca i32, align 4
  %14 = alloca [4 x %struct.rdp_field_info_t], align 16
  %15 = alloca [9 x %struct.rdp_field_info_t], align 16
  %16 = alloca [4 x %struct.rdp_field_info_t], align 16
  %17 = alloca ptr, align 8
  %18 = alloca ptr, align 8
  %19 = alloca ptr, align 8
  store ptr %0, ptr %6, align 8
  store i32 %1, ptr %7, align 4
  store ptr %2, ptr %8, align 8
  store ptr %3, ptr %9, align 8
  store i32 %4, ptr %10, align 4
  call void @llvm.lifetime.start.p0(i64 4, ptr %11) #15
  call void @llvm.lifetime.start.p0(i64 4, ptr %12) #15
  store i32 0, ptr %12, align 4
  call void @llvm.lifetime.start.p0(i64 4, ptr %13) #15
  store i32 0, ptr %13, align 4
  call void @llvm.lifetime.start.p0(i64 160, ptr %14) #15
  %20 = getelementptr inbounds nuw %struct.rdp_field_info_t, ptr %14, i32 0, i32 0
  store ptr @hf_rdp_capabilitySetType, ptr %20, align 8
  %21 = getelementptr inbounds nuw %struct.rdp_field_info_t, ptr %14, i32 0, i32 1
  store i32 2, ptr %21, align 8
  %22 = getelementptr i8, ptr %14, i64 12
  call void @llvm.memset.p0.i64(ptr align 4 %22, i8 0, i64 4, i1 false)
  %23 = getelementptr inbounds nuw %struct.rdp_field_info_t, ptr %14, i32 0, i32 2
  store ptr %13, ptr %23, align 8
  %24 = getelementptr inbounds nuw %struct.rdp_field_info_t, ptr %14, i32 0, i32 3
  store i32 0, ptr %24, align 8
  %25 = getelementptr inbounds nuw %struct.rdp_field_info_t, ptr %14, i32 0, i32 4
  store i32 0, ptr %25, align 4
  %26 = getelementptr inbounds nuw %struct.rdp_field_info_t, ptr %14, i32 0, i32 5
  store ptr null, ptr %26, align 8
  %27 = getelementptr inbounds %struct.rdp_field_info_t, ptr %14, i64 1
  %28 = getelementptr inbounds nuw %struct.rdp_field_info_t, ptr %27, i32 0, i32 0
  store ptr @hf_rdp_lengthCapability, ptr %28, align 8
  %29 = getelementptr inbounds nuw %struct.rdp_field_info_t, ptr %27, i32 0, i32 1
  store i32 2, ptr %29, align 8
  %30 = getelementptr i8, ptr %27, i64 12
  call void @llvm.memset.p0.i64(ptr align 4 %30, i8 0, i64 4, i1 false)
  %31 = getelementptr inbounds nuw %struct.rdp_field_info_t, ptr %27, i32 0, i32 2
  store ptr %12, ptr %31, align 8
  %32 = getelementptr inbounds nuw %struct.rdp_field_info_t, ptr %27, i32 0, i32 3
  store i32 -4, ptr %32, align 8
  %33 = getelementptr inbounds nuw %struct.rdp_field_info_t, ptr %27, i32 0, i32 4
  store i32 0, ptr %33, align 4
  %34 = getelementptr inbounds nuw %struct.rdp_field_info_t, ptr %27, i32 0, i32 5
  store ptr null, ptr %34, align 8
  %35 = getelementptr inbounds %struct.rdp_field_info_t, ptr %14, i64 2
  %36 = getelementptr inbounds nuw %struct.rdp_field_info_t, ptr %35, i32 0, i32 0
  store ptr @hf_rdp_capabilityData, ptr %36, align 8
  %37 = getelementptr inbounds nuw %struct.rdp_field_info_t, ptr %35, i32 0, i32 1
  store i32 0, ptr %37, align 8
  %38 = getelementptr i8, ptr %35, i64 12
  call void @llvm.memset.p0.i64(ptr align 4 %38, i8 0, i64 4, i1 false)
  %39 = getelementptr inbounds nuw %struct.rdp_field_info_t, ptr %35, i32 0, i32 2
  store ptr %12, ptr %39, align 8
  %40 = getelementptr inbounds nuw %struct.rdp_field_info_t, ptr %35, i32 0, i32 3
  store i32 0, ptr %40, align 8
  %41 = getelementptr inbounds nuw %struct.rdp_field_info_t, ptr %35, i32 0, i32 4
  store i32 0, ptr %41, align 4
  %42 = getelementptr inbounds nuw %struct.rdp_field_info_t, ptr %35, i32 0, i32 5
  store ptr null, ptr %42, align 8
  %43 = getelementptr inbounds %struct.rdp_field_info_t, ptr %14, i64 3
  call void @llvm.memset.p0.i64(ptr align 8 %43, i8 0, i64 40, i1 false)
  call void @llvm.lifetime.start.p0(i64 360, ptr %15) #15
  call void @llvm.memcpy.p0.p0.i64(ptr align 16 %15, ptr align 16 @__const.dissect_rdp_capabilitySets.railFlags_fields, i64 360, i1 false)
  call void @llvm.lifetime.start.p0(i64 160, ptr %16) #15
  %44 = getelementptr inbounds nuw %struct.rdp_field_info_t, ptr %16, i32 0, i32 0
  store ptr @hf_rdp_capabilitySetType, ptr %44, align 8
  %45 = getelementptr inbounds nuw %struct.rdp_field_info_t, ptr %16, i32 0, i32 1
  store i32 2, ptr %45, align 8
  %46 = getelementptr i8, ptr %16, i64 12
  call void @llvm.memset.p0.i64(ptr align 4 %46, i8 0, i64 4, i1 false)
  %47 = getelementptr inbounds nuw %struct.rdp_field_info_t, ptr %16, i32 0, i32 2
  store ptr null, ptr %47, align 8
  %48 = getelementptr inbounds nuw %struct.rdp_field_info_t, ptr %16, i32 0, i32 3
  store i32 0, ptr %48, align 8
  %49 = getelementptr inbounds nuw %struct.rdp_field_info_t, ptr %16, i32 0, i32 4
  store i32 0, ptr %49, align 4
  %50 = getelementptr inbounds nuw %struct.rdp_field_info_t, ptr %16, i32 0, i32 5
  store ptr null, ptr %50, align 8
  %51 = getelementptr inbounds %struct.rdp_field_info_t, ptr %16, i64 1
  %52 = getelementptr inbounds nuw %struct.rdp_field_info_t, ptr %51, i32 0, i32 0
  store ptr @hf_rdp_lengthCapability, ptr %52, align 8
  %53 = getelementptr inbounds nuw %struct.rdp_field_info_t, ptr %51, i32 0, i32 1
  store i32 2, ptr %53, align 8
  %54 = getelementptr i8, ptr %51, i64 12
  call void @llvm.memset.p0.i64(ptr align 4 %54, i8 0, i64 4, i1 false)
  %55 = getelementptr inbounds nuw %struct.rdp_field_info_t, ptr %51, i32 0, i32 2
  store ptr null, ptr %55, align 8
  %56 = getelementptr inbounds nuw %struct.rdp_field_info_t, ptr %51, i32 0, i32 3
  store i32 0, ptr %56, align 8
  %57 = getelementptr inbounds nuw %struct.rdp_field_info_t, ptr %51, i32 0, i32 4
  store i32 0, ptr %57, align 4
  %58 = getelementptr inbounds nuw %struct.rdp_field_info_t, ptr %51, i32 0, i32 5
  store ptr null, ptr %58, align 8
  %59 = getelementptr inbounds %struct.rdp_field_info_t, ptr %16, i64 2
  %60 = getelementptr inbounds nuw %struct.rdp_field_info_t, ptr %59, i32 0, i32 0
  store ptr @hf_rdp_capaRail_supportedLevel, ptr %60, align 8
  %61 = getelementptr inbounds nuw %struct.rdp_field_info_t, ptr %59, i32 0, i32 1
  store i32 4, ptr %61, align 8
  %62 = getelementptr i8, ptr %59, i64 12
  call void @llvm.memset.p0.i64(ptr align 4 %62, i8 0, i64 4, i1 false)
  %63 = getelementptr inbounds nuw %struct.rdp_field_info_t, ptr %59, i32 0, i32 2
  store ptr null, ptr %63, align 8
  %64 = getelementptr inbounds nuw %struct.rdp_field_info_t, ptr %59, i32 0, i32 3
  %65 = load i32, ptr @ett_rdp_capa_rail, align 4
  store i32 %65, ptr %64, align 8
  %66 = getelementptr inbounds nuw %struct.rdp_field_info_t, ptr %59, i32 0, i32 4
  store i32 32, ptr %66, align 4
  %67 = getelementptr inbounds nuw %struct.rdp_field_info_t, ptr %59, i32 0, i32 5
  %68 = getelementptr inbounds [9 x %struct.rdp_field_info_t], ptr %15, i64 0, i64 0
  store ptr %68, ptr %67, align 8
  %69 = getelementptr inbounds %struct.rdp_field_info_t, ptr %16, i64 3
  call void @llvm.memset.p0.i64(ptr align 8 %69, i8 0, i64 40, i1 false)
  store i32 0, ptr %11, align 4
  br label %70

70:                                               ; preds = %108, %5
  %71 = load i32, ptr %11, align 4
  %72 = load i32, ptr %10, align 4
  %73 = icmp ult i32 %71, %72
  br i1 %73, label %74, label %111

74:                                               ; preds = %70
  call void @llvm.lifetime.start.p0(i64 8, ptr %17) #15
  call void @llvm.lifetime.start.p0(i64 8, ptr %18) #15
  call void @llvm.lifetime.start.p0(i64 8, ptr %19) #15
  %75 = load ptr, ptr %6, align 8
  %76 = load i32, ptr %7, align 4
  %77 = call zeroext i16 @tvb_get_uint16(ptr noundef %75, i32 noundef %76, i32 noundef -2147483648)
  %78 = zext i16 %77 to i32
  store i32 %78, ptr %13, align 4
  %79 = load ptr, ptr %6, align 8
  %80 = load i32, ptr %7, align 4
  %81 = add i32 %80, 2
  %82 = call zeroext i16 @tvb_get_uint16(ptr noundef %79, i32 noundef %81, i32 noundef -2147483648)
  %83 = zext i16 %82 to i32
  store i32 %83, ptr %12, align 4
  %84 = load ptr, ptr %9, align 8
  %85 = load i32, ptr @hf_rdp_capabilitySet, align 4
  %86 = load ptr, ptr %6, align 8
  %87 = load i32, ptr %7, align 4
  %88 = load i32, ptr %12, align 4
  %89 = call ptr @proto_tree_add_item(ptr noundef %84, i32 noundef %85, ptr noundef %86, i32 noundef %87, i32 noundef %88, i32 noundef 0)
  store ptr %89, ptr %17, align 8
  %90 = load ptr, ptr %17, align 8
  %91 = load i32, ptr %13, align 4
  %92 = call ptr @val_to_str_const(i32 noundef %91, ptr noundef @rdp_capabilityType_vals, ptr noundef @.str.1047)
  call void (ptr, ptr, ...) @proto_item_set_text(ptr noundef %90, ptr noundef @.str.1046, ptr noundef %92)
  %93 = load ptr, ptr %17, align 8
  %94 = load i32, ptr @ett_rdp_capabilitySet, align 4
  %95 = call ptr @proto_item_add_subtree(ptr noundef %93, i32 noundef %94)
  store ptr %95, ptr %18, align 8
  %96 = load i32, ptr %13, align 4
  switch i32 %96, label %99 [
    i32 23, label %97
  ]

97:                                               ; preds = %74
  %98 = getelementptr inbounds [4 x %struct.rdp_field_info_t], ptr %16, i64 0, i64 0
  store ptr %98, ptr %19, align 8
  br label %101

99:                                               ; preds = %74
  %100 = getelementptr inbounds [4 x %struct.rdp_field_info_t], ptr %14, i64 0, i64 0
  store ptr %100, ptr %19, align 8
  br label %101

101:                                              ; preds = %99, %97
  %102 = load ptr, ptr %6, align 8
  %103 = load i32, ptr %7, align 4
  %104 = load ptr, ptr %8, align 8
  %105 = load ptr, ptr %18, align 8
  %106 = load ptr, ptr %19, align 8
  %107 = call i32 @dissect_rdp_fields(ptr noundef %102, i32 noundef %103, ptr noundef %104, ptr noundef %105, ptr noundef %106, i32 noundef 0)
  store i32 %107, ptr %7, align 4
  call void @llvm.lifetime.end.p0(i64 8, ptr %19) #15
  call void @llvm.lifetime.end.p0(i64 8, ptr %18) #15
  call void @llvm.lifetime.end.p0(i64 8, ptr %17) #15
  br label %108

108:                                              ; preds = %101
  %109 = load i32, ptr %11, align 4
  %110 = add i32 %109, 1
  store i32 %110, ptr %11, align 4
  br label %70, !llvm.loop !20

111:                                              ; preds = %70
  %112 = load i32, ptr %7, align 4
  call void @llvm.lifetime.end.p0(i64 160, ptr %16) #15
  call void @llvm.lifetime.end.p0(i64 360, ptr %15) #15
  call void @llvm.lifetime.end.p0(i64 160, ptr %14) #15
  call void @llvm.lifetime.end.p0(i64 4, ptr %13) #15
  call void @llvm.lifetime.end.p0(i64 4, ptr %12) #15
  call void @llvm.lifetime.end.p0(i64 4, ptr %11) #15
  ret i32 %112
}