; Function Attrs: null_pointer_is_valid sspstrong uwtable
define internal fastcc i32 @dissect_rdp_capabilitySets(ptr noundef %0, i32 noundef %1, ptr noundef %2, ptr noundef %3, i32 noundef %4) unnamed_addr #0 {
  %6 = alloca i32, align 4
  %7 = alloca i32, align 4
  %8 = alloca [4 x %struct.rdp_field_info_t], align 16
  %9 = alloca [9 x %struct.rdp_field_info_t], align 16
  %10 = alloca [4 x %struct.rdp_field_info_t], align 16
  call void @llvm.lifetime.start.p0(i64 4, ptr nonnull %6) #14
  store i32 0, ptr %6, align 4
  call void @llvm.lifetime.start.p0(i64 4, ptr nonnull %7) #14
  store i32 0, ptr %7, align 4
  call void @llvm.lifetime.start.p0(i64 160, ptr nonnull %8) #14
  store ptr @hf_rdp_capabilitySetType, ptr %8, align 16
  %11 = getelementptr inbounds nuw i8, ptr %8, i64 8
  store i32 2, ptr %11, align 8
  %12 = getelementptr inbounds nuw i8, ptr %8, i64 12
  store i32 0, ptr %12, align 4
  %13 = getelementptr inbounds nuw i8, ptr %8, i64 16
  store ptr %7, ptr %13, align 16
  %14 = getelementptr inbounds nuw i8, ptr %8, i64 24
  %15 = getelementptr inbounds nuw i8, ptr %8, i64 40
  call void @llvm.memset.p0.i64(ptr noundef nonnull align 8 dereferenceable(16) %14, i8 0, i64 16, i1 false)
  store ptr @hf_rdp_lengthCapability, ptr %15, align 8
  %16 = getelementptr inbounds nuw i8, ptr %8, i64 48
  store i32 2, ptr %16, align 16
  %17 = getelementptr inbounds nuw i8, ptr %8, i64 52
  store i32 0, ptr %17, align 4
  %18 = getelementptr inbounds nuw i8, ptr %8, i64 56
  store ptr %6, ptr %18, align 8
  %19 = getelementptr inbounds nuw i8, ptr %8, i64 64
  store i32 -4, ptr %19, align 16
  %20 = getelementptr inbounds nuw i8, ptr %8, i64 68
  store i32 0, ptr %20, align 4
  %21 = getelementptr inbounds nuw i8, ptr %8, i64 72
  store ptr null, ptr %21, align 8
  %22 = getelementptr inbounds nuw i8, ptr %8, i64 80
  store ptr @hf_rdp_capabilityData, ptr %22, align 16
  %23 = getelementptr inbounds nuw i8, ptr %8, i64 88
  store i32 0, ptr %23, align 8
  %24 = getelementptr inbounds nuw i8, ptr %8, i64 92
  store i32 0, ptr %24, align 4
  %25 = getelementptr inbounds nuw i8, ptr %8, i64 96
  store ptr %6, ptr %25, align 16
  %26 = getelementptr inbounds nuw i8, ptr %8, i64 104
  call void @llvm.memset.p0.i64(ptr noundef nonnull align 8 dereferenceable(56) %26, i8 0, i64 56, i1 false)
  call void @llvm.lifetime.start.p0(i64 360, ptr nonnull %9) #14
  call void @llvm.memcpy.p0.p0.i64(ptr noundef nonnull align 16 dereferenceable(360) %9, ptr noundef nonnull align 16 dereferenceable(360) @__const.dissect_rdp_capabilitySets.railFlags_fields, i64 360, i1 false)
  call void @llvm.lifetime.start.p0(i64 160, ptr nonnull %10) #14
  store ptr @hf_rdp_capabilitySetType, ptr %10, align 16
  %27 = getelementptr inbounds nuw i8, ptr %10, i64 8
  store i32 2, ptr %27, align 8
  %28 = getelementptr inbounds nuw i8, ptr %10, i64 12
  %29 = getelementptr inbounds nuw i8, ptr %10, i64 40
  call void @llvm.memset.p0.i64(ptr noundef nonnull align 4 dereferenceable(28) %28, i8 0, i64 28, i1 false)
  store ptr @hf_rdp_lengthCapability, ptr %29, align 8
  %30 = getelementptr inbounds nuw i8, ptr %10, i64 48
  store i32 2, ptr %30, align 16
  %31 = getelementptr inbounds nuw i8, ptr %10, i64 52
  %32 = getelementptr inbounds nuw i8, ptr %10, i64 80
  call void @llvm.memset.p0.i64(ptr noundef nonnull align 4 dereferenceable(28) %31, i8 0, i64 28, i1 false)
  store ptr @hf_rdp_capaRail_supportedLevel, ptr %32, align 16
  %33 = getelementptr inbounds nuw i8, ptr %10, i64 88
  store i32 4, ptr %33, align 8
  %34 = getelementptr inbounds nuw i8, ptr %10, i64 92
  store i32 0, ptr %34, align 4
  %35 = getelementptr inbounds nuw i8, ptr %10, i64 96
  store ptr null, ptr %35, align 16
  %36 = getelementptr inbounds nuw i8, ptr %10, i64 104
  %37 = load i32, ptr @ett_rdp_capa_rail, align 4
  store i32 %37, ptr %36, align 8
  %38 = getelementptr inbounds nuw i8, ptr %10, i64 108
  store i32 32, ptr %38, align 4
  %39 = getelementptr inbounds nuw i8, ptr %10, i64 112
  store ptr %9, ptr %39, align 16
  %40 = getelementptr inbounds nuw i8, ptr %10, i64 120
  call void @llvm.memset.p0.i64(ptr noundef nonnull align 8 dereferenceable(40) %40, i8 0, i64 40, i1 false)
  %.not = icmp eq i32 %4, 0
  br i1 %.not, label %._crit_edge, label %.lr.ph

.lr.ph:                                           ; preds = %5, %.lr.ph
  %.01720 = phi i32 [ %53, %.lr.ph ], [ %1, %5 ]
  %.01819 = phi i32 [ %54, %.lr.ph ], [ 0, %5 ]
  %41 = call zeroext i16 @tvb_get_uint16(ptr noundef %0, i32 noundef %.01720, i32 noundef -2147483648)
  %42 = zext i16 %41 to i32
  store i32 %42, ptr %7, align 4
  %43 = add i32 %.01720, 2
  %44 = call zeroext i16 @tvb_get_uint16(ptr noundef %0, i32 noundef %43, i32 noundef -2147483648)
  %45 = zext i16 %44 to i32
  store i32 %45, ptr %6, align 4
  %46 = load i32, ptr @hf_rdp_capabilitySet, align 4
  %47 = call ptr @proto_tree_add_item(ptr noundef %3, i32 noundef %46, ptr noundef %0, i32 noundef %.01720, i32 noundef %45, i32 noundef 0)
  %48 = load i32, ptr %7, align 4
  %49 = call ptr @val_to_str_const(i32 noundef %48, ptr noundef nonnull @rdp_capabilityType_vals, ptr noundef nonnull @.str.1047)
  call void (ptr, ptr, ...) @proto_item_set_text(ptr noundef %47, ptr noundef nonnull @.str.1046, ptr noundef %49)
  %50 = load i32, ptr @ett_rdp_capabilitySet, align 4
  %51 = call ptr @proto_item_add_subtree(ptr noundef %47, i32 noundef %50)
  %52 = load i32, ptr %7, align 4
  %cond = icmp eq i32 %52, 23
  %. = select i1 %cond, ptr %10, ptr %8
  %53 = call fastcc i32 @dissect_rdp_fields(ptr noundef %0, i32 noundef %.01720, ptr noundef %2, ptr noundef %51, ptr noundef nonnull %., i32 noundef 0)
  %54 = add nuw i32 %.01819, 1
  %exitcond.not = icmp eq i32 %54, %4
  br i1 %exitcond.not, label %._crit_edge, label %.lr.ph, !llvm.loop !21

._crit_edge:                                      ; preds = %.lr.ph, %5
  %.017.lcssa = phi i32 [ %1, %5 ], [ %53, %.lr.ph ]
  call void @llvm.lifetime.end.p0(i64 160, ptr nonnull %10) #14
  call void @llvm.lifetime.end.p0(i64 360, ptr nonnull %9) #14
  call void @llvm.lifetime.end.p0(i64 160, ptr nonnull %8) #14
  call void @llvm.lifetime.end.p0(i64 4, ptr nonnull %7) #14
  call void @llvm.lifetime.end.p0(i64 4, ptr nonnull %6) #14
  ret i32 %.017.lcssa
}